00000000  8D4C24            lea cx,[si+0x24]
00000003  0483              add al,0x83
00000005  E4F0              in al,0xf0
00000007  FF71FC            push word [bx+di-0x4]
0000000A  55                push bp
0000000B  89E5              mov bp,sp
0000000D  57                push di
0000000E  56                push si
0000000F  53                push bx
00000010  51                push cx
00000011  8D7DD8            lea di,[di-0x28]
00000014  BE080B            mov si,0xb08
00000017  1000              adc [bx+si],al
00000019  B90400            mov cx,0x4
0000001C  0000              add [bx+si],al
0000001E  8D5DD8            lea bx,[di-0x28]
00000021  83EC38            sub sp,byte +0x38
00000024  C745C02003        mov word [di-0x40],0x320
00000029  0000              add [bx+si],al
0000002B  C745C45802        mov word [di-0x3c],0x258
00000030  0000              add [bx+si],al
00000032  A10805            mov ax,[0x508]
00000035  0000              add [bx+si],al
00000037  C745CC2003        mov word [di-0x34],0x320
0000003C  0000              add [bx+si],al
0000003E  F3A5              rep movsw
00000040  C745D05802        mov word [di-0x30],0x258
00000045  0000              add [bx+si],al
00000047  050008            add ax,0x800
0000004A  0000              add [bx+si],al
0000004C  C1E009            shl ax,byte 0x9
0000004F  8945C8            mov [di-0x38],ax
00000052  050054            add ax,0x5400
00000055  07                pop es
00000056  008945D4          add [bx+di-0x2bbb],cl
0000005A  8D45C0            lea ax,[di-0x40]
0000005D  83EC0C            sub sp,byte +0xc
00000060  50                push ax
00000061  E86407            call 0x7c8
00000064  0000              add [bx+si],al
00000066  E86C00            call 0xd5
00000069  0000              add [bx+si],al
0000006B  8D45CC            lea ax,[di-0x34]
0000006E  8904              mov [si],ax
00000070  24E8              and al,0xe8
00000072  54                push sp
00000073  07                pop es
00000074  0000              add [bx+si],al
00000076  E85C00            call 0xd5
00000079  0000              add [bx+si],al
0000007B  58                pop ax
0000007C  5A                pop dx
0000007D  68A500            push word 0xa5
00000080  0000              add [bx+si],al
00000082  53                push bx
00000083  E8AB07            call 0x831
00000086  0000              add [bx+si],al
00000088  E84A00            call 0xd5
0000008B  0000              add [bx+si],al
0000008D  891C              mov [si],bx
0000008F  24E8              and al,0xe8
00000091  F4                hlt
00000092  07                pop es
00000093  0000              add [bx+si],al
00000095  E83D00            call 0xd5
00000098  0000              add [bx+si],al
0000009A  83C40C            add sp,byte +0xc
0000009D  6A03              push byte +0x3
0000009F  6A04              push byte +0x4
000000A1  53                push bx
000000A2  E82808            call 0x8cd
000000A5  0000              add [bx+si],al
000000A7  E82B00            call 0xd5
000000AA  0000              add [bx+si],al
000000AC  59                pop cx
000000AD  5E                pop si
000000AE  6A03              push byte +0x3
000000B0  53                push bx
000000B1  E8AD08            call 0x961
000000B4  0000              add [bx+si],al
000000B6  E81C00            call 0xd5
000000B9  0000              add [bx+si],al
000000BB  83C410            add sp,byte +0x10
000000BE  EB9A              jmp short 0x5a
000000C0  FC                cld
000000C1  B80000            mov ax,0x0
000000C4  0000              add [bx+si],al
000000C6  B90040            mov cx,0x4000
000000C9  0000              add [bx+si],al
000000CB  BF0000            mov di,0x0
000000CE  0300              add ax,[bx+si]
000000D0  F3AB              rep stosw
000000D2  E99100            jmp 0x166
000000D5  0000              add [bx+si],al
000000D7  83EC1C            sub sp,byte +0x1c
000000DA  83EC0C            sub sp,byte +0xc
000000DD  8D4424            lea ax,[si+0x24]
000000E0  1850E8            sbb [bx+si-0x18],dl
000000E3  BF0500            mov di,0x5
000000E6  0083C410          add [bp+di+0x10c4],al
000000EA  84C0              test al,al
000000EC  74EC              jz 0xda
000000EE  8B4424            mov ax,[si+0x24]
000000F1  0C25              or al,0x25
000000F3  00F0              add al,dh
000000F5  0000              add [bx+si],al
000000F7  3D00F0            cmp ax,0xf000
000000FA  0000              add [bx+si],al
000000FC  75DC              jnz 0xda
000000FE  83C41C            add sp,byte +0x1c
00000101  C3                ret
00000102  55                push bp
00000103  57                push di
00000104  31ED              xor bp,bp
00000106  56                push si
00000107  53                push bx
00000108  31F6              xor si,si
0000010A  31DB              xor bx,bx
0000010C  83EC1C            sub sp,byte +0x1c
0000010F  8DBB0001          lea di,[bp+di+0x100]
00000113  0000              add [bx+si],al
00000115  83EC0C            sub sp,byte +0xc
00000118  8B04              mov ax,[si]
0000011A  BD0000            mov bp,0x0
0000011D  0000              add [bx+si],al
0000011F  894424            mov [si+0x24],ax
00000122  1853E8            sbb [bp+di-0x18],dl
00000125  07                pop es
00000126  0900              or [bx+si],ax
00000128  000F              add [bx],cl
0000012A  B6C0              mov dh,0xc0
0000012C  0304              add ax,[si]
0000012E  BD0400            mov bp,0x4
00000131  0000              add [bx+si],al
00000133  01C6              add si,ax
00000135  8D4301            lea ax,[bp+di+0x1]
00000138  83C302            add bx,byte +0x2
0000013B  8904              mov [si],ax
0000013D  24E8              and al,0xe8
0000013F  ED                in ax,dx
00000140  0800              or [bx+si],al
00000142  000F              add [bx],cl
00000144  B6C0              mov dh,0xc0
00000146  034424            add ax,[si+0x24]
00000149  1C83              sbb al,0x83
0000014B  C410              les dx,[bx+si]
0000014D  01C5              add bp,ax
0000014F  81FB8000          cmp bx,0x80
00000153  0000              add [bx+si],al
00000155  75B8              jnz 0x10f
00000157  50                push ax
00000158  50                push ax
00000159  56                push si
0000015A  55                push bp
0000015B  E88B08            call 0x9e9
0000015E  0000              add [bx+si],al
00000160  83C42C            add sp,byte +0x2c
00000163  5B                pop bx
00000164  5E                pop si
00000165  5F                pop di
00000166  5D                pop bp
00000167  C3                ret
00000168  83EC0C            sub sp,byte +0xc
0000016B  E84001            call 0x2ae
0000016E  0000              add [bx+si],al
00000170  E88DFF            call 0x100
00000173  FF                db 0xff
00000174  FF                db 0xff
00000175  E81304            call 0x58b
00000178  0000              add [bx+si],al
0000017A  E8A102            call 0x41e
0000017D  0000              add [bx+si],al
0000017F  E89C03            call 0x51e
00000182  0000              add [bx+si],al
00000184  B078              mov al,0x78
00000186  E69E              out 0x9e,al
00000188  FB                sti
00000189  F4                hlt
0000018A  EBFD              jmp short 0x189
0000018C  90                nop
0000018D  CF                iret
0000018E  90                nop
0000018F  83C404            add sp,byte +0x4
00000192  CF                iret
00000193  55                push bp
00000194  89E5              mov bp,sp
00000196  51                push cx
00000197  52                push dx
00000198  50                push ax
00000199  83E4F0            and sp,byte -0x10
0000019C  83EC1C            sub sp,byte +0x1c
0000019F  FF05              inc word [di]
000001A1  A808              test al,0x8
000001A3  0000              add [bx+si],al
000001A5  6A00              push byte +0x0
000001A7  FC                cld
000001A8  E86302            call 0x40e
000001AB  0000              add [bx+si],al
000001AD  83C410            add sp,byte +0x10
000001B0  8D65F4            lea sp,[di-0xc]
000001B3  58                pop ax
000001B4  5A                pop dx
000001B5  59                pop cx
000001B6  5D                pop bp
000001B7  CF                iret
000001B8  55                push bp
000001B9  89E5              mov bp,sp
000001BB  51                push cx
000001BC  52                push dx
000001BD  50                push ax
000001BE  83E4F0            and sp,byte -0x10
000001C1  83EC1C            sub sp,byte +0x1c
000001C4  6A08              push byte +0x8
000001C6  FC                cld
000001C7  E84402            call 0x40e
000001CA  0000              add [bx+si],al
000001CC  83C410            add sp,byte +0x10
000001CF  8D65F4            lea sp,[di-0xc]
000001D2  58                pop ax
000001D3  5A                pop dx
000001D4  59                pop cx
000001D5  5D                pop bp
000001D6  CF                iret
000001D7  55                push bp
000001D8  89E5              mov bp,sp
000001DA  51                push cx
000001DB  52                push dx
000001DC  50                push ax
000001DD  83E4F0            and sp,byte -0x10
000001E0  83EC1C            sub sp,byte +0x1c
000001E3  6A0E              push byte +0xe
000001E5  FC                cld
000001E6  E82502            call 0x40e
000001E9  0000              add [bx+si],al
000001EB  83C410            add sp,byte +0x10
000001EE  8D65F4            lea sp,[di-0xc]
000001F1  58                pop ax
000001F2  5A                pop dx
000001F3  59                pop cx
000001F4  5D                pop bp
000001F5  CF                iret
000001F6  55                push bp
000001F7  89E5              mov bp,sp
000001F9  51                push cx
000001FA  52                push dx
000001FB  50                push ax
000001FC  83E4F0            and sp,byte -0x10
000001FF  83EC10            sub sp,byte +0x10
00000202  FC                cld
00000203  E85904            call 0x65f
00000206  0000              add [bx+si],al
00000208  83EC0C            sub sp,byte +0xc
0000020B  6A01              push byte +0x1
0000020D  E8FE01            call 0x40e
00000210  0000              add [bx+si],al
00000212  83C410            add sp,byte +0x10
00000215  8D65F4            lea sp,[di-0xc]
00000218  58                pop ax
00000219  5A                pop dx
0000021A  59                pop cx
0000021B  5D                pop bp
0000021C  CF                iret
0000021D  55                push bp
0000021E  89E5              mov bp,sp
00000220  51                push cx
00000221  52                push dx
00000222  50                push ax
00000223  83E4F0            and sp,byte -0x10
00000226  83EC1C            sub sp,byte +0x1c
00000229  6A07              push byte +0x7
0000022B  FC                cld
0000022C  E89302            call 0x4c2
0000022F  0000              add [bx+si],al
00000231  83C410            add sp,byte +0x10
00000234  84C0              test al,al
00000236  750D              jnz 0x245
00000238  83EC0C            sub sp,byte +0xc
0000023B  6A07              push byte +0x7
0000023D  E8CE01            call 0x40e
00000240  0000              add [bx+si],al
00000242  83C410            add sp,byte +0x10
00000245  8D65F4            lea sp,[di-0xc]
00000248  58                pop ax
00000249  5A                pop dx
0000024A  59                pop cx
0000024B  5D                pop bp
0000024C  CF                iret
0000024D  55                push bp
0000024E  89E5              mov bp,sp
00000250  51                push cx
00000251  52                push dx
00000252  50                push ax
00000253  83E4F0            and sp,byte -0x10
00000256  83EC1C            sub sp,byte +0x1c
00000259  6A0F              push byte +0xf
0000025B  FC                cld
0000025C  E86302            call 0x4c2
0000025F  0000              add [bx+si],al
00000261  83C410            add sp,byte +0x10
00000264  84C0              test al,al
00000266  750D              jnz 0x275
00000268  83EC0C            sub sp,byte +0xc
0000026B  6A0F              push byte +0xf
0000026D  E89E01            call 0x40e
00000270  0000              add [bx+si],al
00000272  83C410            add sp,byte +0x10
00000275  8D65F4            lea sp,[di-0xc]
00000278  58                pop ax
00000279  5A                pop dx
0000027A  59                pop cx
0000027B  5D                pop bp
0000027C  CF                iret
0000027D  53                push bx
0000027E  0FB64C24          movzx cx,[si+0x24]
00000282  088B5424          or [bp+di+0x2454],cl
00000286  0C8B              or al,0x8b
00000288  5C                pop sp
00000289  2410              and al,0x10
0000028B  8D04              lea ax,[si]
0000028D  CDB0              int 0xb0
0000028F  0800              or [bx+si],al
00000291  006689            add [bp-0x77],ah
00000294  14CD              adc al,0xcd
00000296  B008              mov al,0x8
00000298  0000              add [bx+si],al
0000029A  C1EA10            shr dx,byte 0x10
0000029D  66C7400208008858  mov dword [bx+si+0x2],0x58880008
000002A5  056689            add ax,0x8966
000002A8  50                push ax
000002A9  06                push es
000002AA  C6400400          mov byte [bx+si+0x4],0x0
000002AE  5B                pop bx
000002AF  C3                ret
000002B0  53                push bx
000002B1  C7052405          mov word [di],0x524
000002B5  0000              add [bx+si],al
000002B7  B008              mov al,0x8
000002B9  0000              add [bx+si],al
000002BB  31DB              xor bx,bx
000002BD  66C70522050000    mov dword [di],0x522
000002C4  FF07              inc word [bx]
000002C6  688E00            push word 0x8e
000002C9  0000              add [bx+si],al
000002CB  688C01            push word 0x18c
000002CE  1000              adc [bx+si],al
000002D0  53                push bx
000002D1  43                inc bx
000002D2  E8A6FF            call 0x27b
000002D5  FF                db 0xff
000002D6  FF83C40C          inc word [bp+di+0xcc4]
000002DA  83FB08            cmp bx,byte +0x8
000002DD  75E7              jnz 0x2c6
000002DF  688E00            push word 0x8e
000002E2  0000              add [bx+si],al
000002E4  688E01            push word 0x18e
000002E7  1000              adc [bx+si],al
000002E9  BB0A00            mov bx,0xa
000002EC  0000              add [bx+si],al
000002EE  6A08              push byte +0x8
000002F0  E888FF            call 0x27b
000002F3  FF                db 0xff
000002F4  FF688E            jmp far [bx+si-0x72]
000002F7  0000              add [bx+si],al
000002F9  00688C            add [bx+si-0x74],ch
000002FC  0110              add [bx+si],dx
000002FE  006A09            add [bp+si+0x9],ch
00000301  E877FF            call 0x27b
00000304  FF                db 0xff
00000305  FF83C418          inc word [bp+di+0x18c4]
00000309  688E00            push word 0x8e
0000030C  0000              add [bx+si],al
0000030E  688E01            push word 0x18e
00000311  1000              adc [bx+si],al
00000313  53                push bx
00000314  43                inc bx
00000315  E863FF            call 0x27b
00000318  FF                db 0xff
00000319  FF83C40C          inc word [bp+di+0xcc4]
0000031D  83FB0F            cmp bx,byte +0xf
00000320  75E7              jnz 0x309
00000322  688E00            push word 0x8e
00000325  0000              add [bx+si],al
00000327  688C01            push word 0x18c
0000032A  1000              adc [bx+si],al
0000032C  BB1200            mov bx,0x12
0000032F  0000              add [bx+si],al
00000331  6A0F              push byte +0xf
00000333  E845FF            call 0x27b
00000336  FF                db 0xff
00000337  FF688E            jmp far [bx+si-0x72]
0000033A  0000              add [bx+si],al
0000033C  00688C            add [bx+si-0x74],ch
0000033F  0110              add [bx+si],dx
00000341  006A10            add [bp+si+0x10],ch
00000344  E834FF            call 0x27b
00000347  FF                db 0xff
00000348  FF688E            jmp far [bx+si-0x72]
0000034B  0000              add [bx+si],al
0000034D  00688E            add [bx+si-0x72],ch
00000350  0110              add [bx+si],dx
00000352  006A11            add [bp+si+0x11],ch
00000355  E823FF            call 0x27b
00000358  FF                db 0xff
00000359  FF83C424          inc word [bp+di+0x24c4]
0000035D  688E00            push word 0x8e
00000360  0000              add [bx+si],al
00000362  688C01            push word 0x18c
00000365  1000              adc [bx+si],al
00000367  53                push bx
00000368  43                inc bx
00000369  E80FFF            call 0x27b
0000036C  FF                db 0xff
0000036D  FF83C40C          inc word [bp+di+0xcc4]
00000371  83FB1E            cmp bx,byte +0x1e
00000374  75E7              jnz 0x35d
00000376  688E00            push word 0x8e
00000379  0000              add [bx+si],al
0000037B  688C01            push word 0x18c
0000037E  1000              adc [bx+si],al
00000380  6A1E              push byte +0x1e
00000382  E8F6FE            call 0x27b
00000385  FF                db 0xff
00000386  FF688E            jmp far [bx+si-0x72]
00000389  0000              add [bx+si],al
0000038B  00688E            add [bx+si-0x72],ch
0000038E  0110              add [bx+si],dx
00000390  006A1F            add [bp+si+0x1f],ch
00000393  E8E5FE            call 0x27b
00000396  FF                db 0xff
00000397  FF688E            jmp far [bx+si-0x72]
0000039A  0000              add [bx+si],al
0000039C  006893            add [bx+si-0x6d],ch
0000039F  0110              add [bx+si],dx
000003A1  006A20            add [bp+si+0x20],ch
000003A4  E8D4FE            call 0x27b
000003A7  FF                db 0xff
000003A8  FF83C424          inc word [bp+di+0x24c4]
000003AC  688E00            push word 0x8e
000003AF  0000              add [bx+si],al
000003B1  68F601            push word 0x1f6
000003B4  1000              adc [bx+si],al
000003B6  6A21              push byte +0x21
000003B8  E8C0FE            call 0x27b
000003BB  FF                db 0xff
000003BC  FF688E            jmp far [bx+si-0x72]
000003BF  0000              add [bx+si],al
000003C1  00681D            add [bx+si+0x1d],ch
000003C4  0210              add dl,[bx+si]
000003C6  006A27            add [bp+si+0x27],ch
000003C9  E8AFFE            call 0x27b
000003CC  FF                db 0xff
000003CD  FF688E            jmp far [bx+si-0x72]
000003D0  0000              add [bx+si],al
000003D2  0068B8            add [bx+si-0x48],ch
000003D5  0110              add [bx+si],dx
000003D7  006A28            add [bp+si+0x28],ch
000003DA  E89EFE            call 0x27b
000003DD  FF                db 0xff
000003DE  FF83C424          inc word [bp+di+0x24c4]
000003E2  688E00            push word 0x8e
000003E5  0000              add [bx+si],al
000003E7  68D701            push word 0x1d7
000003EA  1000              adc [bx+si],al
000003EC  6A2E              push byte +0x2e
000003EE  E88AFE            call 0x27b
000003F1  FF                db 0xff
000003F2  FF688E            jmp far [bx+si-0x72]
000003F5  0000              add [bx+si],al
000003F7  00684D            add [bx+si+0x4d],ch
000003FA  0210              add dl,[bx+si]
000003FC  006A2F            add [bp+si+0x2f],ch
000003FF  E879FE            call 0x27b
00000402  FF                db 0xff
00000403  FF0F              dec word [bx]
00000405  011D              add [di],bx
00000407  2205              and al,[di]
00000409  0000              add [bx+si],al
0000040B  83C418            add sp,byte +0x18
0000040E  5B                pop bx
0000040F  C3                ret
00000410  807C2404          cmp byte [si+0x24],0x4
00000414  07                pop es
00000415  7604              jna 0x41b
00000417  B020              mov al,0x20
00000419  E6A0              out 0xa0,al
0000041B  B020              mov al,0x20
0000041D  E620              out 0x20,al
0000041F  C3                ret
00000420  B111              mov cl,0x11
00000422  88C8              mov al,cl
00000424  E620              out 0x20,al
00000426  31D2              xor dx,dx
00000428  88D0              mov al,dl
0000042A  E680              out 0x80,al
0000042C  88C8              mov al,cl
0000042E  E6A0              out 0xa0,al
00000430  88D0              mov al,dl
00000432  E680              out 0x80,al
00000434  B020              mov al,0x20
00000436  E621              out 0x21,al
00000438  88D0              mov al,dl
0000043A  E680              out 0x80,al
0000043C  B028              mov al,0x28
0000043E  E6A1              out 0xa1,al
00000440  88D0              mov al,dl
00000442  E680              out 0x80,al
00000444  B004              mov al,0x4
00000446  E621              out 0x21,al
00000448  88D0              mov al,dl
0000044A  E680              out 0x80,al
0000044C  B002              mov al,0x2
0000044E  E6A1              out 0xa1,al
00000450  88D0              mov al,dl
00000452  E680              out 0x80,al
00000454  B101              mov cl,0x1
00000456  88C8              mov al,cl
00000458  E621              out 0x21,al
0000045A  88D0              mov al,dl
0000045C  E680              out 0x80,al
0000045E  88C8              mov al,cl
00000460  E6A1              out 0xa1,al
00000462  88D0              mov al,dl
00000464  E680              out 0x80,al
00000466  B078              mov al,0x78
00000468  E621              out 0x21,al
0000046A  B03E              mov al,0x3e
0000046C  E6A1              out 0xa1,al
0000046E  C3                ret
0000046F  53                push bx
00000470  8B4424            mov ax,[si+0x24]
00000473  083C              or [si],bh
00000475  07                pop es
00000476  760A              jna 0x482
00000478  8D48F8            lea cx,[bx+si-0x8]
0000047B  BAA100            mov dx,0xa1
0000047E  0000              add [bx+si],al
00000480  EB07              jmp short 0x489
00000482  88C1              mov cl,al
00000484  BA2100            mov dx,0x21
00000487  0000              add [bx+si],al
00000489  EC                in al,dx
0000048A  BBFEFF            mov bx,0xfffe
0000048D  FF                db 0xff
0000048E  FFD3              call bx
00000490  C3                ret
00000491  21D8              and ax,bx
00000493  EE                out dx,al
00000494  5B                pop bx
00000495  C3                ret
00000496  53                push bx
00000497  8B4424            mov ax,[si+0x24]
0000049A  083C              or [si],bh
0000049C  07                pop es
0000049D  760A              jna 0x4a9
0000049F  8D48F8            lea cx,[bx+si-0x8]
000004A2  BAA100            mov dx,0xa1
000004A5  0000              add [bx+si],al
000004A7  EB07              jmp short 0x4b0
000004A9  88C1              mov cl,al
000004AB  BA2100            mov dx,0x21
000004AE  0000              add [bx+si],al
000004B0  EC                in al,dx
000004B1  BB0100            mov bx,0x1
000004B4  0000              add [bx+si],al
000004B6  D3E3              shl bx,cl
000004B8  09D8              or ax,bx
000004BA  EE                out dx,al
000004BB  5B                pop bx
000004BC  C3                ret
000004BD  B0FF              mov al,0xff
000004BF  E6A1              out 0xa1,al
000004C1  E621              out 0x21,al
000004C3  C3                ret
000004C4  8B4424            mov ax,[si+0x24]
000004C7  043C              add al,0x3c
000004C9  0F7514            pcmpeqw mm2,[si]
000004CC  B00B              mov al,0xb
000004CE  E6A0              out 0xa0,al
000004D0  E4A0              in al,0xa0
000004D2  31D2              xor dx,dx
000004D4  84C0              test al,al
000004D6  781B              js 0x4f3
000004D8  B020              mov al,0x20
000004DA  E620              out 0x20,al
000004DC  B201              mov dl,0x1
000004DE  EB13              jmp short 0x4f3
000004E0  31D2              xor dx,dx
000004E2  3C07              cmp al,0x7
000004E4  750D              jnz 0x4f3
000004E6  B00B              mov al,0xb
000004E8  E620              out 0x20,al
000004EA  E420              in al,0x20
000004EC  88C2              mov dl,al
000004EE  F7D2              not dx
000004F0  C0EA07            shr dl,byte 0x7
000004F3  88D0              mov al,dl
000004F5  C3                ret
000004F6  B00A              mov al,0xa
000004F8  E620              out 0x20,al
000004FA  E6A0              out 0xa0,al
000004FC  E4A0              in al,0xa0
000004FE  88C2              mov dl,al
00000500  E420              in al,0x20
00000502  C1E208            shl dx,byte 0x8
00000505  0FB6C0            movzx ax,al
00000508  09D0              or ax,dx
0000050A  C3                ret
0000050B  B00B              mov al,0xb
0000050D  E620              out 0x20,al
0000050F  E6A0              out 0xa0,al
00000511  E4A0              in al,0xa0
00000513  88C2              mov dl,al
00000515  E420              in al,0x20
00000517  C1E208            shl dx,byte 0x8
0000051A  0FB6C0            movzx ax,al
0000051D  09D0              or ax,dx
0000051F  C3                ret
00000520  C705A808          mov word [di],0x8a8
00000524  0000              add [bx+si],al
00000526  0000              add [bx+si],al
00000528  0000              add [bx+si],al
0000052A  E9C805            jmp 0xaf5
0000052D  0000              add [bx+si],al
0000052F  A1A808            mov ax,[0x8a8]
00000532  0000              add [bx+si],al
00000534  034424            add ax,[si+0x24]
00000537  043B              add al,0x3b
00000539  05A808            add ax,0x8a8
0000053C  0000              add [bx+si],al
0000053E  7203              jc 0x543
00000540  90                nop
00000541  EBF5              jmp short 0x538
00000543  C3                ret
00000544  E464              in al,0x64
00000546  A802              test al,0x2
00000548  7403              jz 0x54d
0000054A  90                nop
0000054B  EBF7              jmp short 0x544
0000054D  C3                ret
0000054E  31D2              xor dx,dx
00000550  E464              in al,0x64
00000552  42                inc dx
00000553  2401              and al,0x1
00000555  750D              jnz 0x564
00000557  E680              out 0x80,al
00000559  81FAFF00          cmp dx,0xff
0000055D  0000              add [bx+si],al
0000055F  75EF              jnz 0x550
00000561  31C0              xor ax,ax
00000563  C3                ret
00000564  B001              mov al,0x1
00000566  C3                ret
00000567  53                push bx
00000568  B104              mov cl,0x4
0000056A  88C3              mov bl,al
0000056C  FEC9              dec cl
0000056E  740F              jz 0x57f
00000570  88D8              mov al,bl
00000572  E660              out 0x60,al
00000574  E8D5FF            call 0x54c
00000577  FF                db 0xff
00000578  FF84C088          inc word [si-0x7740]
0000057C  C27504            ret 0x475
0000057F  31D2              xor dx,dx
00000581  EB06              jmp short 0x589
00000583  E460              in al,0x60
00000585  3CFA              cmp al,0xfa
00000587  75E3              jnz 0x56c
00000589  88D0              mov al,dl
0000058B  5B                pop bx
0000058C  C3                ret
0000058D  53                push bx
0000058E  B0AD              mov al,0xad
00000590  E664              out 0x64,al
00000592  E8ADFF            call 0x542
00000595  FF                db 0xff
00000596  FFB0A7E6          push word [bx+si-0x1959]
0000059A  64E8A4FF          fs call 0x542
0000059E  FF                db 0xff
0000059F  FFE4              jmp sp
000005A1  60                pusha
000005A2  B020              mov al,0x20
000005A4  E664              out 0x64,al
000005A6  E8A3FF            call 0x54c
000005A9  FF                db 0xff
000005AA  FFE4              jmp sp
000005AC  60                pusha
000005AD  B360              mov bl,0x60
000005AF  83E0BC            and ax,byte -0x44
000005B2  88C1              mov cl,al
000005B4  88D8              mov al,bl
000005B6  E664              out 0x64,al
000005B8  E887FF            call 0x542
000005BB  FF                db 0xff
000005BC  FF88C8E6          dec word [bx+si-0x1938]
000005C0  60                pusha
000005C1  E87EFF            call 0x542
000005C4  FF                db 0xff
000005C5  FFB0AAE6          push word [bx+si-0x1956]
000005C9  64E87FFF          fs call 0x54c
000005CD  FF                db 0xff
000005CE  FFE4              jmp sp
000005D0  60                pusha
000005D1  88D8              mov al,bl
000005D3  E664              out 0x64,al
000005D5  E86AFF            call 0x542
000005D8  FF                db 0xff
000005D9  FF88C8E6          dec word [bx+si-0x1938]
000005DD  60                pusha
000005DE  E861FF            call 0x542
000005E1  FF                db 0xff
000005E2  FFB0ABE6          push word [bx+si-0x1955]
000005E6  64E862FF          fs call 0x54c
000005EA  FF                db 0xff
000005EB  FFE4              jmp sp
000005ED  60                pusha
000005EE  88D8              mov al,bl
000005F0  E664              out 0x64,al
000005F2  E84DFF            call 0x542
000005F5  FF                db 0xff
000005F6  FF88C883          dec word [bx+si-0x7c38]
000005FA  C801E660          enter 0xe601,0x60
000005FE  E841FF            call 0x542
00000601  FF                db 0xff
00000602  FFB0AEE6          push word [bx+si-0x1952]
00000606  64E838FF          fs call 0x542
0000060A  FF                db 0xff
0000060B  FF                db 0xff
0000060C  B8FF00            mov ax,0xff
0000060F  0000              add [bx+si],al
00000611  E851FF            call 0x565
00000614  FF                db 0xff
00000615  FF84C074          inc word [si+0x74c0]
00000619  3CE8              cmp al,0xe8
0000061B  2F                das
0000061C  FF                db 0xff
0000061D  FF                db 0xff
0000061E  FF84C074          inc word [si+0x74c0]
00000622  33E4              xor sp,sp
00000624  60                pusha
00000625  3CAA              cmp al,0xaa
00000627  752D              jnz 0x656
00000629  B8F500            mov ax,0xf5
0000062C  0000              add [bx+si],al
0000062E  E834FF            call 0x565
00000631  FF                db 0xff
00000632  FF                db 0xff
00000633  B8F000            mov ax,0xf0
00000636  0000              add [bx+si],al
00000638  E82AFF            call 0x565
0000063B  FF                db 0xff
0000063C  FF84C074          inc word [si+0x74c0]
00000640  0AB80200          or bh,[bx+si+0x2]
00000644  0000              add [bx+si],al
00000646  E81CFF            call 0x565
00000649  FF                db 0xff
0000064A  FF5BB8            call far [bp+di-0x48]
0000064D  F4                hlt
0000064E  0000              add [bx+si],al
00000650  00E9              add cl,ch
00000652  11FF              adc di,di
00000654  FF                db 0xff
00000655  FF5BC3            call far [bp+di-0x3d]
00000658  B0FE              mov al,0xfe
0000065A  E664              out 0x64,al
0000065C  E9E3FE            jmp 0x542
0000065F  FF                db 0xff
00000660  FFE4              jmp sp
00000662  60                pusha
00000663  0FB6C0            movzx ax,al
00000666  0B05              or ax,[di]
00000668  0000              add [bx+si],al
0000066A  0300              add ax,[bx+si]
0000066C  89C2              mov dx,ax
0000066E  A30000            mov [0x0],ax
00000671  0300              add ax,[bx+si]
00000673  81E2E000          and dx,0xe0
00000677  0000              add [bx+si],al
00000679  81FAE000          cmp dx,0xe0
0000067D  0000              add [bx+si],al
0000067F  7509              jnz 0x68a
00000681  C1E008            shl ax,byte 0x8
00000684  A30000            mov [0x0],ax
00000687  0300              add ax,[bx+si]
00000689  C3                ret
0000068A  83EC14            sub sp,byte +0x14
0000068D  50                push ax
0000068E  68180B            push word 0xb18
00000691  1000              adc [bx+si],al
00000693  E83500            call 0x6cb
00000696  0000              add [bx+si],al
00000698  C7050000          mov word [di],0x0
0000069C  0300              add ax,[bx+si]
0000069E  0000              add [bx+si],al
000006A0  0000              add [bx+si],al
000006A2  83C41C            add sp,byte +0x1c
000006A5  C3                ret
000006A6  83EC24            sub sp,byte +0x24
000006A9  8D4424            lea ax,[si+0x24]
000006AC  1450              adc al,0x50
000006AE  68180B            push word 0xb18
000006B1  1000              adc [bx+si],al
000006B3  E84800            call 0x6fe
000006B6  0000              add [bx+si],al
000006B8  83C410            add sp,byte +0x10
000006BB  84C0              test al,al
000006BD  740A              jz 0x6c9
000006BF  8B5424            mov dx,[si+0x24]
000006C2  208B4C24          and [bp+di+0x244c],cl
000006C6  0C89              or al,0x89
000006C8  0A83C41C          or al,[bp+di+0x1cc4]
000006CC  C3                ret
000006CD  53                push bx
000006CE  8B4424            mov ax,[si+0x24]
000006D1  088B4808          or [bp+di+0x848],cl
000006D5  394804            cmp [bx+si+0x4],cx
000006D8  7507              jnz 0x6e1
000006DA  C740040000        mov word [bx+si+0x4],0x0
000006DF  0000              add [bx+si],al
000006E1  8B5004            mov dx,[bx+si+0x4]
000006E4  8B480C            mov cx,[bx+si+0xc]
000006E7  8D5A01            lea bx,[bp+si+0x1]
000006EA  895804            mov [bx+si+0x4],bx
000006ED  8B5C24            mov bx,[si+0x24]
000006F0  0C89              or al,0x89
000006F2  1C91              sbb al,0x91
000006F4  8B5004            mov dx,[bx+si+0x4]
000006F7  3B10              cmp dx,[bx+si]
000006F9  7503              jnz 0x6fe
000006FB  42                inc dx
000006FC  8910              mov [bx+si],dx
000006FE  5B                pop bx
000006FF  C3                ret
00000700  53                push bx
00000701  8B5424            mov dx,[si+0x24]
00000704  0831              or [bx+di],dh
00000706  C08B0A3B4A        ror byte [bp+di+0x3b0a],byte 0x4a
0000070B  0474              add al,0x74
0000070D  203B              and [bp+di],bh
0000070F  4A                dec dx
00000710  087506            or [di+0x6],dh
00000713  C7020000          mov word [bp+si],0x0
00000717  0000              add [bx+si],al
00000719  8B02              mov ax,[bp+si]
0000071B  8B4A0C            mov cx,[bp+si+0xc]
0000071E  8D5801            lea bx,[bx+si+0x1]
00000721  891A              mov [bp+si],bx
00000723  8B14              mov dx,[si]
00000725  818B44240C89      or word [bp+di+0x2444],0x890c
0000072B  10B0015B          adc [bx+si+0x5b01],dh
0000072F  C3                ret
00000730  8A0D              mov cl,[di]
00000732  41                inc cx
00000733  07                pop es
00000734  0000              add [bx+si],al
00000736  8B15              mov dx,[di]
00000738  1000              adc [bx+si],al
0000073A  0300              add ax,[bx+si]
0000073C  0310              add dx,[bx+si]
0000073E  C0E903            shr cl,byte 0x3
00000741  0FB6C9            movzx cx,cl
00000744  0FAFD1            imul dx,cx
00000747  8B0D              mov cx,[di]
00000749  1400              adc al,0x0
0000074B  0300              add ax,[bx+si]
0000074D  034804            add cx,[bx+si+0x4]
00000750  89C8              mov ax,cx
00000752  0F                db 0x0f
00000753  B70D              mov bh,0xd
00000755  3807              cmp [bx],al
00000757  0000              add [bx+si],al
00000759  0FAFC1            imul ax,cx
0000075C  01D0              add ax,dx
0000075E  0305              add ax,[di]
00000760  50                push ax
00000761  07                pop es
00000762  0000              add [bx+si],al
00000764  C3                ret
00000765  55                push bp
00000766  57                push di
00000767  56                push si
00000768  53                push bx
00000769  83EC1C            sub sp,byte +0x1c
0000076C  8B4424            mov ax,[si+0x24]
0000076F  308B5C24          xor [bp+di+0x245c],cl
00000773  34E8              xor al,0xe8
00000775  B7FF              mov bh,0xff
00000777  FF                db 0xff
00000778  FF89C78B          dec word [bx+di-0x7439]
0000077C  44                inc sp
0000077D  2430              and al,0x30
0000077F  8A15              mov dl,[di]
00000781  41                inc cx
00000782  07                pop es
00000783  0000              add [bx+si],al
00000785  8B6B08            mov bp,[bp+di+0x8]
00000788  8B7008            mov si,[bx+si+0x8]
0000078B  C0EA03            shr dl,byte 0x3
0000078E  0FB6D2            movzx dx,dl
00000791  0FAFF2            imul si,dx
00000794  0FAF13            imul dx,[bp+di]
00000797  31DB              xor bx,bx
00000799  895424            mov [si+0x24],dx
0000079C  0C8B              or al,0x8b
0000079E  44                inc sp
0000079F  2430              and al,0x30
000007A1  39580C            cmp [bx+si+0xc],bx
000007A4  761C              jna 0x7c2
000007A6  50                push ax
000007A7  56                push si
000007A8  43                inc bx
000007A9  55                push bp
000007AA  57                push di
000007AB  E80B03            call 0xab9
000007AE  0000              add [bx+si],al
000007B0  0F                db 0x0f
000007B1  B70D              mov bh,0xd
000007B3  3807              cmp [bx],al
000007B5  0000              add [bx+si],al
000007B7  036C24            add bp,[si+0x24]
000007BA  1C83              sbb al,0x83
000007BC  C410              les dx,[bx+si]
000007BE  01CF              add di,cx
000007C0  EBDB              jmp short 0x79d
000007C2  83C41C            add sp,byte +0x1c
000007C5  5B                pop bx
000007C6  5E                pop si
000007C7  5F                pop di
000007C8  5D                pop bp
000007C9  C3                ret
000007CA  53                push bx
000007CB  83EC20            sub sp,byte +0x20
000007CE  8B5424            mov dx,[si+0x24]
000007D1  288B1A8B          sub [bp+di-0x74e6],cl
000007D5  42                inc dx
000007D6  088B4A04          or [bp+di+0x44a],cl
000007DA  891D              mov [di],bx
000007DC  0400              add al,0x0
000007DE  0300              add ax,[bx+si]
000007E0  A30C00            mov [0xc],ax
000007E3  0300              add ax,[bx+si]
000007E5  0F                db 0x0f
000007E6  B705              mov bh,0x5
000007E8  3A07              cmp al,[bx]
000007EA  0000              add [bx+si],al
000007EC  890D              mov [di],cx
000007EE  0800              or [bx+si],al
000007F0  0300              add ax,[bx+si]
000007F2  29D8              sub ax,bx
000007F4  D1E8              shr ax,1
000007F6  A31000            mov [0x10],ax
000007F9  0300              add ax,[bx+si]
000007FB  0F                db 0x0f
000007FC  B705              mov bh,0x5
000007FE  3C07              cmp al,0x7
00000800  0000              add [bx+si],al
00000802  895C24            mov [si+0x24],bx
00000805  10C7              adc bh,al
00000807  44                inc sp
00000808  2408              and al,0x8
0000080A  0000              add [bx+si],al
0000080C  0000              add [bx+si],al
0000080E  C744240C00        mov word [si+0x24],0xc
00000813  0000              add [bx+si],al
00000815  00894C24          add [bx+di+0x244c],cl
00000819  1452              adc al,0x52
0000081B  29C8              sub ax,cx
0000081D  D1E8              shr ax,1
0000081F  A31400            mov [0x14],ax
00000822  0300              add ax,[bx+si]
00000824  8D4424            lea ax,[si+0x24]
00000827  0C50              or al,0x50
00000829  E837FF            call 0x763
0000082C  FF                db 0xff
0000082D  FF83C428          inc word [bp+di+0x28c4]
00000831  5B                pop bx
00000832  C3                ret
00000833  55                push bp
00000834  57                push di
00000835  31FF              xor di,di
00000837  56                push si
00000838  53                push bx
00000839  83EC0C            sub sp,byte +0xc
0000083C  8B4424            mov ax,[si+0x24]
0000083F  20E8              and al,ch
00000841  EBFE              jmp short 0x841
00000843  FF                db 0xff
00000844  FF8A1541          dec word [bp+si+0x4115]
00000848  07                pop es
00000849  0000              add [bx+si],al
0000084B  89C5              mov bp,ax
0000084D  8B4424            mov ax,[si+0x24]
00000850  200F              and [bx],cl
00000852  B674              mov dh,0x74
00000854  2424              and al,0x24
00000856  C0EA03            shr dl,byte 0x3
00000859  0FB6DA            movzx bx,dl
0000085C  0FAF5808          imul bx,[bx+si+0x8]
00000860  8B4424            mov ax,[si+0x24]
00000863  2039              and [bx+di],bh
00000865  780C              js 0x873
00000867  7618              jna 0x881
00000869  50                push ax
0000086A  53                push bx
0000086B  47                inc di
0000086C  56                push si
0000086D  55                push bp
0000086E  E8FB01            call 0xa6c
00000871  0000              add [bx+si],al
00000873  0F                db 0x0f
00000874  B715              mov bh,0x15
00000876  3807              cmp [bx],al
00000878  0000              add [bx+si],al
0000087A  83C410            add sp,byte +0x10
0000087D  01D5              add bp,dx
0000087F  EBDF              jmp short 0x860
00000881  83C40C            add sp,byte +0xc
00000884  5B                pop bx
00000885  5E                pop si
00000886  5F                pop di
00000887  5D                pop bp
00000888  C3                ret
00000889  53                push bx
0000088A  83EC10            sub sp,byte +0x10
0000088D  8A0D              mov cl,[di]
0000088F  41                inc cx
00000890  07                pop es
00000891  0000              add [bx+si],al
00000893  8B1D              mov bx,[di]
00000895  0C00              or al,0x0
00000897  0300              add ax,[bx+si]
00000899  8B5424            mov dx,[si+0x24]
0000089C  18C0              sbb al,al
0000089E  E9038B            jmp 0x93a4
000008A1  42                inc dx
000008A2  040F              add al,0xf
000008A4  B6C9              mov dh,0xc9
000008A6  0FAF05            imul ax,[di]
000008A9  0400              add al,0x0
000008AB  0300              add ax,[bx+si]
000008AD  0302              add ax,[bp+si]
000008AF  680400            push word 0x4
000008B2  0300              add ax,[bx+si]
000008B4  52                push dx
000008B5  0FAFC1            imul ax,cx
000008B8  01D8              add ax,bx
000008BA  A30C00            mov [0xc],ax
000008BD  0300              add ax,[bx+si]
000008BF  E8A1FE            call 0x763
000008C2  FF                db 0xff
000008C3  FF891D0C          dec word [bx+di+0xc1d]
000008C7  0003              add [bp+di],al
000008C9  0083C418          add [bp+di+0x18c4],al
000008CD  5B                pop bx
000008CE  C3                ret
000008CF  55                push bp
000008D0  57                push di
000008D1  56                push si
000008D2  53                push bx
000008D3  83EC34            sub sp,byte +0x34
000008D6  8B5C24            mov bx,[si+0x24]
000008D9  48                dec ax
000008DA  0FB67C24          movzx di,[si+0x24]
000008DE  4C                dec sp
000008DF  8B7424            mov si,[si+0x24]
000008E2  50                push ax
000008E3  8B03              mov ax,[bp+di]
000008E5  897424            mov [si+0x24],si
000008E8  1489              adc al,0x89
000008EA  44                inc sp
000008EB  2408              and al,0x8
000008ED  8B4304            mov ax,[bp+di+0x4]
000008F0  894424            mov [si+0x24],ax
000008F3  0C8B              or al,0x8b
000008F5  43                inc bx
000008F6  08894424          or [bx+di+0x2444],cl
000008FA  10578D            adc [bx-0x73],dl
000008FD  6C                insb
000008FE  240C              and al,0xc
00000900  55                push bp
00000901  E82DFF            call 0x831
00000904  FF                db 0xff
00000905  FF8B4424          dec word [bp+di+0x2444]
00000909  1429              adc al,0x29
0000090B  F003430C          lock add ax,[bp+di+0xc]
0000090F  894424            mov [si+0x24],ax
00000912  1458              adc al,0x58
00000914  5A                pop dx
00000915  57                push di
00000916  55                push bp
00000917  E817FF            call 0x831
0000091A  FF                db 0xff
0000091B  FF8B0389          dec word [bp+di-0x76fd]
0000091F  7424              jz 0x945
00000921  28894424          sub [bx+di+0x2444],cl
00000925  208B4304          and [bp+di+0x443],cl
00000929  01F0              add ax,si
0000092B  894424            mov [si+0x24],ax
0000092E  248B              and al,0x8b
00000930  43                inc bx
00000931  0C29              or al,0x29
00000933  F0894424          lock mov [si+0x24],ax
00000937  2C59              sub al,0x59
00000939  5D                pop bp
0000093A  57                push di
0000093B  8D6C24            lea bp,[si+0x24]
0000093E  1C55              sbb al,0x55
00000940  E8EEFE            call 0x831
00000943  FF                db 0xff
00000944  FF8B4424          dec word [bp+di+0x2444]
00000948  2029              and [bx+di],ch
0000094A  F0034308          lock add ax,[bp+di+0x8]
0000094E  894424            mov [si+0x24],ax
00000951  20585A            and [bx+si+0x5a],bl
00000954  57                push di
00000955  55                push bp
00000956  E8D8FE            call 0x831
00000959  FF                db 0xff
0000095A  FF83C43C          inc word [bp+di+0x3cc4]
0000095E  5B                pop bx
0000095F  5E                pop si
00000960  5F                pop di
00000961  5D                pop bp
00000962  C3                ret
00000963  57                push di
00000964  56                push si
00000965  53                push bx
00000966  83EC2C            sub sp,byte +0x2c
00000969  8B5C24            mov bx,[si+0x24]
0000096C  3C8B              cmp al,0x8b
0000096E  7424              jz 0x994
00000970  40                inc ax
00000971  8D7C24            lea di,[si+0x24]
00000974  0C8B              or al,0x8b
00000976  03897424          add cx,[bx+di+0x2474]
0000097A  18894424          sbb [bx+di+0x2444],cl
0000097E  0C8B              or al,0x8b
00000980  43                inc bx
00000981  0489              add al,0x89
00000983  44                inc sp
00000984  2410              and al,0x10
00000986  8B4308            mov ax,[bp+di+0x8]
00000989  894424            mov [si+0x24],ax
0000098C  1457              adc al,0x57
0000098E  E8F6FE            call 0x887
00000991  FF                db 0xff
00000992  FF8B4424          dec word [bp+di+0x2444]
00000996  1429              adc al,0x29
00000998  F003430C          lock add ax,[bp+di+0xc]
0000099C  893C              mov [si],di
0000099E  2489              and al,0x89
000009A0  44                inc sp
000009A1  2414              and al,0x14
000009A3  E8E1FE            call 0x887
000009A6  FF                db 0xff
000009A7  FF8B0389          dec word [bp+di-0x76fd]
000009AB  7424              jz 0x9d1
000009AD  28894424          sub [bx+di+0x2444],cl
000009B1  208B4304          and [bp+di+0x443],cl
000009B5  01F0              add ax,si
000009B7  894424            mov [si+0x24],ax
000009BA  248B              and al,0x8b
000009BC  43                inc bx
000009BD  0C29              or al,0x29
000009BF  F0894424          lock mov [si+0x24],ax
000009C3  2C58              sub al,0x58
000009C5  8D7C24            lea di,[si+0x24]
000009C8  1C57              sbb al,0x57
000009CA  E8BAFE            call 0x887
000009CD  FF                db 0xff
000009CE  FF8B4424          dec word [bp+di+0x2444]
000009D2  2029              and [bx+di],ch
000009D4  F0034308          lock add ax,[bp+di+0x8]
000009D8  893C              mov [si],di
000009DA  2489              and al,0x89
000009DC  44                inc sp
000009DD  2420              and al,0x20
000009DF  E8A5FE            call 0x887
000009E2  FF                db 0xff
000009E3  FF83C430          inc word [bp+di+0x30c4]
000009E7  5B                pop bx
000009E8  5E                pop si
000009E9  5F                pop di
000009EA  C3                ret
000009EB  8B4424            mov ax,[si+0x24]
000009EE  04A3              add al,0xa3
000009F0  1800              sbb [bx+si],al
000009F2  0300              add ax,[bx+si]
000009F4  8B4424            mov ax,[si+0x24]
000009F7  08A31C00          or [bp+di+0x1c],ah
000009FB  0300              add ax,[bx+si]
000009FD  C3                ret
000009FE  8B0D              mov cx,[di]
00000A00  1800              sbb [bx+si],al
00000A02  0300              add ax,[bx+si]
00000A04  8B15              mov dx,[di]
00000A06  1C00              sbb al,0x0
00000A08  0300              add ax,[bx+si]
00000A0A  53                push bx
00000A0B  31CA              xor dx,cx
00000A0D  89D3              mov bx,dx
00000A0F  C1E309            shl bx,byte 0x9
00000A12  31D3              xor bx,dx
00000A14  69C1BB79          imul ax,cx,word 0x79bb
00000A18  37                aaa
00000A19  9E                sahf
00000A1A  C1C11A            rol cx,byte 0x1a
00000A1D  31D9              xor cx,bx
00000A1F  C1C20D            rol dx,byte 0xd
00000A22  890D              mov [di],cx
00000A24  1800              sbb [bx+si],al
00000A26  0300              add ax,[bx+si]
00000A28  8915              mov [di],dx
00000A2A  1C00              sbb al,0x0
00000A2C  0300              add ax,[bx+si]
00000A2E  5B                pop bx
00000A2F  C3                ret
00000A30  8B4424            mov ax,[si+0x24]
00000A33  040A              add al,0xa
00000A35  052000            add ax,0x20
00000A38  0300              add ax,[bx+si]
00000A3A  E670              out 0x70,al
00000A3C  E471              in al,0x71
00000A3E  C3                ret
00000A3F  8B4424            mov ax,[si+0x24]
00000A42  04E6              add al,0xe6
00000A44  708B              jo 0x9d1
00000A46  44                inc sp
00000A47  2408              and al,0x8
00000A49  E671              out 0x71,al
00000A4B  C3                ret
00000A4C  C60520            mov byte [di],0x20
00000A4F  0003              add [bp+di],al
00000A51  0000              add [bx+si],al
00000A53  E470              in al,0x70
00000A55  83E07F            and ax,byte +0x7f
00000A58  E670              out 0x70,al
00000A5A  E471              in al,0x71
00000A5C  C3                ret
00000A5D  C60520            mov byte [di],0x20
00000A60  0003              add [bp+di],al
00000A62  0080E470          add [bx+si+0x70e4],al
00000A66  83C880            or ax,byte -0x80
00000A69  E670              out 0x70,al
00000A6B  E471              in al,0x71
00000A6D  C3                ret
00000A6E  55                push bp
00000A6F  57                push di
00000A70  56                push si
00000A71  53                push bx
00000A72  8B4424            mov ax,[si+0x24]
00000A75  188B7424          sbb [bp+di+0x2474],cl
00000A79  1C0F              sbb al,0xf
00000A7B  B6F8              mov dh,0xf8
00000A7D  88C3              mov bl,al
00000A7F  89F2              mov dx,si
00000A81  89F8              mov ax,di
00000A83  89FD              mov bp,di
00000A85  89F1              mov cx,si
00000A87  C1E018            shl ax,byte 0x18
00000A8A  C1E510            shl bp,byte 0x10
00000A8D  83E203            and dx,byte +0x3
00000A90  09E8              or ax,bp
00000A92  C1E902            shr cx,byte 0x2
00000A95  09F8              or ax,di
00000A97  C1E708            shl di,byte 0x8
00000A9A  09F8              or ax,di
00000A9C  8B7C24            mov di,[si+0x24]
00000A9F  14FC              adc al,0xfc
00000AA1  F3AB              rep stosw
00000AA3  83E6FC            and si,byte -0x4
00000AA6  037424            add si,[si+0x24]
00000AA9  1431              adc al,0x31
00000AAB  C039D0            sar byte [bx+di],byte 0xd0
00000AAE  7406              jz 0xab6
00000AB0  881C              mov [si],bl
00000AB2  06                push es
00000AB3  40                inc ax
00000AB4  EBF6              jmp short 0xaac
00000AB6  5B                pop bx
00000AB7  5E                pop si
00000AB8  5F                pop di
00000AB9  5D                pop bp
00000ABA  C3                ret
00000ABB  57                push di
00000ABC  56                push si
00000ABD  53                push bx
00000ABE  8B4424            mov ax,[si+0x24]
00000AC1  188B7C24          sbb [bp+di+0x247c],cl
00000AC5  108B7424          adc [bp+di+0x2474],cl
00000AC9  1489              adc al,0x89
00000ACB  C289C1            ret 0xc189
00000ACE  83E203            and dx,byte +0x3
00000AD1  C1E902            shr cx,byte 0x2
00000AD4  FC                cld
00000AD5  F3A5              rep movsw
00000AD7  8B7424            mov si,[si+0x24]
00000ADA  1083E0FC          adc [bp+di-0x320],al
00000ADE  31C9              xor cx,cx
00000AE0  01C6              add si,ax
00000AE2  034424            add ax,[si+0x24]
00000AE5  1439              adc al,0x39
00000AE7  CA7409            retf 0x974
00000AEA  8A1C              mov bl,[si]
00000AEC  08881C0E          or [bx+si+0xe1c],cl
00000AF0  41                inc cx
00000AF1  EBF3              jmp short 0xae6
00000AF3  5B                pop bx
00000AF4  5E                pop si
00000AF5  5F                pop di
00000AF6  C3                ret
00000AF7  B078              mov al,0x78
00000AF9  E69E              out 0x9e,al
00000AFB  B036              mov al,0x36
00000AFD  E643              out 0x43,al
00000AFF  B0A9              mov al,0xa9
00000B01  E640              out 0x40,al
00000B03  B004              mov al,0x4
00000B05  E640              out 0x40,al
00000B07  C3                ret
00000B08  FA                cli
00000B09  0000              add [bx+si],al
00000B0B  00960000          add [bp+0x0],dl
00000B0F  00C8              add al,cl
00000B11  0000              add [bx+si],al
00000B13  002C              add [si],ch
00000B15  0100              add [bx+si],ax
00000B17  0000              add [bx+si],al
00000B19  0000              add [bx+si],al
00000B1B  0000              add [bx+si],al
00000B1D  0000              add [bx+si],al
00000B1F  00800000          add [bx+si+0x0],al
00000B23  0000              add [bx+si],al
00000B25  0007              add [bx],al
00000B27  00                db 0x00
